target datalayout = "e-m:e-p270:32:32-p271:32:32-p272:64:64-i64:64-i128:128-f80:128-n8:16:32:64-S128"
target triple = "x86_64-pc-linux-gnu"

%struct.__storeu_ps = type { <4 x float> }
%struct.__loadu_si128 = type { <2 x i64> }

; Function Attrs: alwaysinline nounwind uwtable
define available_externally void @_mm_storeu_ps(ptr noundef %0, <4 x float> noundef %1) #2 {
  %3 = alloca ptr, align 8
  %4 = alloca <4 x float>, align 16
  store ptr %0, ptr %3, align 8, !tbaa !21
  store <4 x float> %1, ptr %4, align 16, !tbaa !12
  %5 = load <4 x float>, ptr %4, align 16, !tbaa !12
  %6 = load ptr, ptr %3, align 8, !tbaa !21
  %7 = getelementptr inbounds nuw %struct.__storeu_ps, ptr %6, i32 0, i32 0
  store <4 x float> %5, ptr %7, align 1, !tbaa !12
  ret void
}

; Function Attrs: alwaysinline nounwind uwtable
define available_externally <4 x float> @_mm_castsi128_ps(<2 x i64> noundef %0) #2 {
  %2 = alloca <2 x i64>, align 16
  store <2 x i64> %0, ptr %2, align 16, !tbaa !12
  %3 = load <2 x i64>, ptr %2, align 16, !tbaa !12
  %4 = bitcast <2 x i64> %3 to <4 x float>
  ret <4 x float> %4
}

; Function Attrs: alwaysinline nounwind uwtable
define available_externally <2 x i64> @_mm_castps_si128(<4 x float> noundef %0) #2 {
  %2 = alloca <4 x float>, align 16
  store <4 x float> %0, ptr %2, align 16, !tbaa !12
  %3 = load <4 x float>, ptr %2, align 16, !tbaa !12
  %4 = bitcast <4 x float> %3 to <2 x i64>
  ret <2 x i64> %4
}

; Function Attrs: alwaysinline nounwind uwtable
define available_externally <4 x float> @_mm_cvtepi32_ps(<2 x i64> noundef %0) #2 {
  %2 = alloca <2 x i64>, align 16
  store <2 x i64> %0, ptr %2, align 16, !tbaa !12
  %3 = load <2 x i64>, ptr %2, align 16, !tbaa !12
  %4 = bitcast <2 x i64> %3 to <4 x i32>
  %5 = sitofp <4 x i32> %4 to <4 x float>
  ret <4 x float> %5
}

; Function Attrs: alwaysinline nounwind uwtable
define available_externally <2 x i64> @_mm_unpackhi_epi16(<2 x i64> noundef %0, <2 x i64> noundef %1) #2 {
  %3 = alloca <2 x i64>, align 16
  %4 = alloca <2 x i64>, align 16
  store <2 x i64> %0, ptr %3, align 16, !tbaa !12
  store <2 x i64> %1, ptr %4, align 16, !tbaa !12
  %5 = load <2 x i64>, ptr %3, align 16, !tbaa !12
  %6 = bitcast <2 x i64> %5 to <8 x i16>
  %7 = load <2 x i64>, ptr %4, align 16, !tbaa !12
  %8 = bitcast <2 x i64> %7 to <8 x i16>
  %9 = shufflevector <8 x i16> %6, <8 x i16> %8, <8 x i32> <i32 4, i32 12, i32 5, i32 13, i32 6, i32 14, i32 7, i32 15>
  %10 = bitcast <8 x i16> %9 to <2 x i64>
  ret <2 x i64> %10
}

; Function Attrs: alwaysinline nounwind uwtable
define available_externally <2 x i64> @_mm_unpacklo_epi16(<2 x i64> noundef %0, <2 x i64> noundef %1) #2 {
  %3 = alloca <2 x i64>, align 16
  %4 = alloca <2 x i64>, align 16
  store <2 x i64> %0, ptr %3, align 16, !tbaa !12
  store <2 x i64> %1, ptr %4, align 16, !tbaa !12
  %5 = load <2 x i64>, ptr %3, align 16, !tbaa !12
  %6 = bitcast <2 x i64> %5 to <8 x i16>
  %7 = load <2 x i64>, ptr %4, align 16, !tbaa !12
  %8 = bitcast <2 x i64> %7 to <8 x i16>
  %9 = shufflevector <8 x i16> %6, <8 x i16> %8, <8 x i32> <i32 0, i32 8, i32 1, i32 9, i32 2, i32 10, i32 3, i32 11>
  %10 = bitcast <8 x i16> %9 to <2 x i64>
  ret <2 x i64> %10
}

; Function Attrs: alwaysinline nounwind uwtable
define available_externally <2 x i64> @_mm_setzero_si128() #2 {
  %1 = alloca <2 x i64>, align 16
  store <2 x i64> zeroinitializer, ptr %1, align 16, !tbaa !12
  %2 = load <2 x i64>, ptr %1, align 16, !tbaa !12
  ret <2 x i64> %2
}

; Function Attrs: alwaysinline nounwind uwtable
define available_externally <2 x i64> @_mm_loadu_si128(ptr noundef %0) #2 {
  %2 = alloca ptr, align 8
  store ptr %0, ptr %2, align 8, !tbaa !3
  %3 = load ptr, ptr %2, align 8, !tbaa !3
  %4 = getelementptr inbounds nuw %struct.__loadu_si128, ptr %3, i32 0, i32 0
  %5 = load <2 x i64>, ptr %4, align 1, !tbaa !12
  ret <2 x i64> %5
}

; Function Attrs: nounwind uwtable
define void @stbir__decode_uint16_linear_BGRA(ptr noundef %0, i32 noundef %1, ptr noundef %2) #0 {
  %4 = alloca ptr, align 8
  %5 = alloca i32, align 4
  %6 = alloca ptr, align 8
  %7 = alloca ptr, align 8
  %8 = alloca ptr, align 8
  %9 = alloca ptr, align 8
  %10 = alloca ptr, align 8
  %11 = alloca <2 x i64>, align 16
  %12 = alloca <2 x i64>, align 16
  %13 = alloca <2 x i64>, align 16
  %14 = alloca <4 x float>, align 16
  %15 = alloca <4 x float>, align 16
  %16 = alloca <2 x i64>, align 16
  %17 = alloca i32, align 4
  store ptr %0, ptr %4, align 8, !tbaa !21
  store i32 %1, ptr %5, align 4, !tbaa !26
  store ptr %2, ptr %6, align 8, !tbaa !3
  call void @llvm.lifetime.start.p0(i64 8, ptr %7) #12
  %18 = load ptr, ptr %4, align 8, !tbaa !21
  store ptr %18, ptr %7, align 8, !tbaa !21
  call void @llvm.lifetime.start.p0(i64 8, ptr %8) #12
  %19 = load ptr, ptr %7, align 8, !tbaa !21
  %20 = load i32, ptr %5, align 4, !tbaa !26
  %21 = sext i32 %20 to i64
  %22 = getelementptr inbounds float, ptr %19, i64 %21
  store ptr %22, ptr %8, align 8, !tbaa !21
  call void @llvm.lifetime.start.p0(i64 8, ptr %9) #12
  %23 = load ptr, ptr %6, align 8, !tbaa !3
  store ptr %23, ptr %9, align 8, !tbaa !191
  call void @llvm.lifetime.start.p0(i64 8, ptr %10) #12
  %24 = load ptr, ptr %9, align 8, !tbaa !191
  %25 = load i32, ptr %5, align 4, !tbaa !26
  %26 = sext i32 %25 to i64
  %27 = getelementptr inbounds i16, ptr %24, i64 %26
  %28 = getelementptr inbounds i16, ptr %27, i64 -8
  store ptr %28, ptr %10, align 8, !tbaa !191
  %29 = load i32, ptr %5, align 4, !tbaa !26
  %30 = icmp sge i32 %29, 8
  br i1 %30, label %31, label %88

31:                                               ; preds = %3
  %32 = load ptr, ptr %8, align 8, !tbaa !21
  %33 = getelementptr inbounds float, ptr %32, i64 -8
  store ptr %33, ptr %8, align 8, !tbaa !21
  br label %34

34:                                               ; preds = %86, %84, %31
  call void @llvm.lifetime.start.p0(i64 16, ptr %11) #12
  call void @llvm.lifetime.start.p0(i64 16, ptr %12) #12
  call void @llvm.lifetime.start.p0(i64 16, ptr %13) #12
  call void @llvm.lifetime.start.p0(i64 16, ptr %14) #12
  call void @llvm.lifetime.start.p0(i64 16, ptr %15) #12
  %35 = load ptr, ptr %7, align 8, !tbaa !21
  call void asm sideeffect "", "r,~{dirflag},~{fpsr},~{flags}"(ptr %35) #12, !srcloc !268
  %36 = load ptr, ptr %9, align 8, !tbaa !191
  %37 = call <2 x i64> @_mm_loadu_si128(ptr noundef %36)
  store <2 x i64> %37, ptr %11, align 16, !tbaa !12
  call void @llvm.lifetime.start.p0(i64 16, ptr %16) #12
  %38 = call <2 x i64> @_mm_setzero_si128()
  store <2 x i64> %38, ptr %16, align 16, !tbaa !12
  %39 = load <2 x i64>, ptr %11, align 16, !tbaa !12
  %40 = load <2 x i64>, ptr %16, align 16, !tbaa !12
  %41 = call <2 x i64> @_mm_unpacklo_epi16(<2 x i64> noundef %39, <2 x i64> noundef %40)
  store <2 x i64> %41, ptr %12, align 16, !tbaa !12
  %42 = load <2 x i64>, ptr %11, align 16, !tbaa !12
  %43 = load <2 x i64>, ptr %16, align 16, !tbaa !12
  %44 = call <2 x i64> @_mm_unpackhi_epi16(<2 x i64> noundef %42, <2 x i64> noundef %43)
  store <2 x i64> %44, ptr %13, align 16, !tbaa !12
  call void @llvm.lifetime.end.p0(i64 16, ptr %16) #12
  %45 = load <2 x i64>, ptr %12, align 16, !tbaa !12
  %46 = call <4 x float> @_mm_cvtepi32_ps(<2 x i64> noundef %45)
  store <4 x float> %46, ptr %14, align 16, !tbaa !12
  %47 = load <2 x i64>, ptr %13, align 16, !tbaa !12
  %48 = call <4 x float> @_mm_cvtepi32_ps(<2 x i64> noundef %47)
  store <4 x float> %48, ptr %15, align 16, !tbaa !12
  %49 = load <4 x float>, ptr %14, align 16, !tbaa !12
  %50 = call <2 x i64> @_mm_castps_si128(<4 x float> noundef %49)
  %51 = bitcast <2 x i64> %50 to <4 x i32>
  %52 = shufflevector <4 x i32> %51, <4 x i32> poison, <4 x i32> <i32 2, i32 1, i32 0, i32 3>
  %53 = bitcast <4 x i32> %52 to <2 x i64>
  %54 = call <4 x float> @_mm_castsi128_ps(<2 x i64> noundef %53)
  store <4 x float> %54, ptr %14, align 16, !tbaa !12
  %55 = load <4 x float>, ptr %15, align 16, !tbaa !12
  %56 = call <2 x i64> @_mm_castps_si128(<4 x float> noundef %55)
  %57 = bitcast <2 x i64> %56 to <4 x i32>
  %58 = shufflevector <4 x i32> %57, <4 x i32> poison, <4 x i32> <i32 2, i32 1, i32 0, i32 3>
  %59 = bitcast <4 x i32> %58 to <2 x i64>
  %60 = call <4 x float> @_mm_castsi128_ps(<2 x i64> noundef %59)
  store <4 x float> %60, ptr %15, align 16, !tbaa !12
  %61 = load ptr, ptr %7, align 8, !tbaa !21
  %62 = getelementptr inbounds float, ptr %61, i64 0
  %63 = load <4 x float>, ptr %14, align 16, !tbaa !12
  call void @_mm_storeu_ps(ptr noundef %62, <4 x float> noundef %63)
  %64 = load ptr, ptr %7, align 8, !tbaa !21
  %65 = getelementptr inbounds float, ptr %64, i64 4
  %66 = load <4 x float>, ptr %15, align 16, !tbaa !12
  call void @_mm_storeu_ps(ptr noundef %65, <4 x float> noundef %66)
  %67 = load ptr, ptr %7, align 8, !tbaa !21
  %68 = getelementptr inbounds float, ptr %67, i64 8
  store ptr %68, ptr %7, align 8, !tbaa !21
  %69 = load ptr, ptr %9, align 8, !tbaa !191
  %70 = getelementptr inbounds i16, ptr %69, i64 8
  store ptr %70, ptr %9, align 8, !tbaa !191
  %71 = load ptr, ptr %7, align 8, !tbaa !21
  %72 = load ptr, ptr %8, align 8, !tbaa !21
  %73 = icmp ule ptr %71, %72
  br i1 %73, label %74, label %75

74:                                               ; preds = %34
  store i32 3, ptr %17, align 4
  br label %84, !llvm.loop !269

75:                                               ; preds = %34
  %76 = load ptr, ptr %7, align 8, !tbaa !21
  %77 = load ptr, ptr %8, align 8, !tbaa !21
  %78 = getelementptr inbounds float, ptr %77, i64 8
  %79 = icmp eq ptr %76, %78
  br i1 %79, label %80, label %81

80:                                               ; preds = %75
  store i32 2, ptr %17, align 4
  br label %84

81:                                               ; preds = %75
  %82 = load ptr, ptr %8, align 8, !tbaa !21
  store ptr %82, ptr %7, align 8, !tbaa !21
  %83 = load ptr, ptr %10, align 8, !tbaa !191
  store ptr %83, ptr %9, align 8, !tbaa !191
  store i32 0, ptr %17, align 4
  br label %84

84:                                               ; preds = %81, %80, %74
  call void @llvm.lifetime.end.p0(i64 16, ptr %15) #12
  call void @llvm.lifetime.end.p0(i64 16, ptr %14) #12
  call void @llvm.lifetime.end.p0(i64 16, ptr %13) #12
  call void @llvm.lifetime.end.p0(i64 16, ptr %12) #12
  call void @llvm.lifetime.end.p0(i64 16, ptr %11) #12
  %85 = load i32, ptr %17, align 4
  switch i32 %85, label %131 [
    i32 0, label %86
    i32 3, label %34
    i32 2, label %87
  ]

86:                                               ; preds = %84
  br label %34, !llvm.loop !269

87:                                               ; preds = %84
  store i32 1, ptr %17, align 4
  br label %128

88:                                               ; preds = %3
  %89 = load ptr, ptr %7, align 8, !tbaa !21
  %90 = getelementptr inbounds float, ptr %89, i64 4
  store ptr %90, ptr %7, align 8, !tbaa !21
  br label %91

91:                                               ; preds = %95, %88
  %92 = load ptr, ptr %7, align 8, !tbaa !21
  %93 = load ptr, ptr %8, align 8, !tbaa !21
  %94 = icmp ule ptr %92, %93
  br i1 %94, label %95, label %125

95:                                               ; preds = %91
  %96 = load ptr, ptr %7, align 8, !tbaa !21
  call void asm sideeffect "", "r,~{dirflag},~{fpsr},~{flags}"(ptr %96) #12, !srcloc !270
  %97 = load ptr, ptr %9, align 8, !tbaa !191
  %98 = getelementptr inbounds i16, ptr %97, i64 2
  %99 = load i16, ptr %98, align 2, !tbaa !196
  %100 = uitofp i16 %99 to float
  %101 = load ptr, ptr %7, align 8, !tbaa !21
  %102 = getelementptr inbounds float, ptr %101, i64 -4
  store float %100, ptr %102, align 4, !tbaa !29
  %103 = load ptr, ptr %9, align 8, !tbaa !191
  %104 = getelementptr inbounds i16, ptr %103, i64 1
  %105 = load i16, ptr %104, align 2, !tbaa !196
  %106 = uitofp i16 %105 to float
  %107 = load ptr, ptr %7, align 8, !tbaa !21
  %108 = getelementptr inbounds float, ptr %107, i64 -3
  store float %106, ptr %108, align 4, !tbaa !29
  %109 = load ptr, ptr %9, align 8, !tbaa !191
  %110 = getelementptr inbounds i16, ptr %109, i64 0
  %111 = load i16, ptr %110, align 2, !tbaa !196
  %112 = uitofp i16 %111 to float
  %113 = load ptr, ptr %7, align 8, !tbaa !21
  %114 = getelementptr inbounds float, ptr %113, i64 -2
  store float %112, ptr %114, align 4, !tbaa !29
  %115 = load ptr, ptr %9, align 8, !tbaa !191
  %116 = getelementptr inbounds i16, ptr %115, i64 3
  %117 = load i16, ptr %116, align 2, !tbaa !196
  %118 = uitofp i16 %117 to float
  %119 = load ptr, ptr %7, align 8, !tbaa !21
  %120 = getelementptr inbounds float, ptr %119, i64 -1
  store float %118, ptr %120, align 4, !tbaa !29
  %121 = load ptr, ptr %7, align 8, !tbaa !21
  %122 = getelementptr inbounds float, ptr %121, i64 4
  store ptr %122, ptr %7, align 8, !tbaa !21
  %123 = load ptr, ptr %9, align 8, !tbaa !191
  %124 = getelementptr inbounds i16, ptr %123, i64 4
  store ptr %124, ptr %9, align 8, !tbaa !191
  br label %91, !llvm.loop !271

125:                                              ; preds = %91
  %126 = load ptr, ptr %7, align 8, !tbaa !21
  %127 = getelementptr inbounds float, ptr %126, i64 -4
  store ptr %127, ptr %7, align 8, !tbaa !21
  store i32 0, ptr %17, align 4
  br label %128

128:                                              ; preds = %125, %87
  call void @llvm.lifetime.end.p0(i64 8, ptr %10) #12
  call void @llvm.lifetime.end.p0(i64 8, ptr %9) #12
  call void @llvm.lifetime.end.p0(i64 8, ptr %8) #12
  call void @llvm.lifetime.end.p0(i64 8, ptr %7) #12
  %129 = load i32, ptr %17, align 4
  switch i32 %129, label %131 [
    i32 0, label %130
    i32 1, label %130
  ]

130:                                              ; preds = %128, %128
  ret void

131:                                              ; preds = %128, %84
  unreachable
}