; Function Attrs: nounwind uwtable
define void @stbir__decode_uint16_linear_BGRA(ptr noundef %0, i32 noundef %1, ptr noundef readonly captures(none) %2) #0 {
  %4 = sext i32 %1 to i64
  %.idx = shl nsw i64 %4, 2
  %5 = getelementptr inbounds i8, ptr %0, i64 %.idx
  %6 = getelementptr inbounds i16, ptr %2, i64 %4
  %7 = getelementptr inbounds i8, ptr %6, i64 -16
  %8 = icmp sgt i32 %1, 7
  br i1 %8, label %9, label %.preheader

.preheader:                                       ; preds = %3
  %.not57 = icmp slt i32 %1, 4
  br i1 %.not57, label %.loopexit, label %.lr.ph.preheader

.lr.ph.preheader:                                 ; preds = %.preheader
  %.256 = getelementptr inbounds nuw i8, ptr %0, i64 16
  br label %.lr.ph

9:                                                ; preds = %3
  %10 = getelementptr inbounds i8, ptr %5, i64 -32
  br label %11

11:                                               ; preds = %11, %9
  %.046 = phi ptr [ %2, %9 ], [ %.147, %11 ]
  %.045 = phi ptr [ %0, %9 ], [ %.1, %11 ]
  tail call void asm sideeffect "", "r,~{dirflag},~{fpsr},~{flags}"(ptr %.045) #24, !srcloc !232
  %12 = load <8 x i16>, ptr %.046, align 1, !tbaa !4
  %13 = shufflevector <8 x i16> %12, <8 x i16> <i16 0, i16 0, i16 0, i16 0, i16 poison, i16 poison, i16 poison, i16 poison>, <8 x i32> <i32 0, i32 8, i32 1, i32 9, i32 2, i32 10, i32 3, i32 11>
  %14 = shufflevector <8 x i16> %12, <8 x i16> <i16 poison, i16 poison, i16 poison, i16 poison, i16 0, i16 0, i16 0, i16 0>, <8 x i32> <i32 4, i32 12, i32 5, i32 13, i32 6, i32 14, i32 7, i32 15>
  %15 = bitcast <8 x i16> %13 to <4 x i32>
  %16 = uitofp nneg <4 x i32> %15 to <4 x float>
  %17 = bitcast <8 x i16> %14 to <4 x i32>
  %18 = uitofp nneg <4 x i32> %17 to <4 x float>
  %19 = shufflevector <4 x float> %16, <4 x float> poison, <4 x i32> <i32 2, i32 1, i32 0, i32 3>
  %20 = shufflevector <4 x float> %18, <4 x float> poison, <4 x i32> <i32 2, i32 1, i32 0, i32 3>
  store <4 x float> %19, ptr %.045, align 1, !tbaa !4
  %21 = getelementptr inbounds nuw i8, ptr %.045, i64 16
  store <4 x float> %20, ptr %21, align 1, !tbaa !4
  %22 = getelementptr inbounds nuw i8, ptr %.045, i64 32
  %23 = getelementptr inbounds nuw i8, ptr %.046, i64 16
  %.not52 = icmp ugt ptr %22, %10
  %24 = icmp eq ptr %22, %5
  %. = select i1 %24, ptr %23, ptr %7
  %.53 = select i1 %24, ptr %22, ptr %10
  %.147 = select i1 %.not52, ptr %., ptr %23
  %.1 = select i1 %.not52, ptr %.53, ptr %22
  br i1 %24, label %.loopexit, label %11

.lr.ph:                                           ; preds = %.lr.ph.preheader, %.lr.ph
  %.260 = phi ptr [ %.2, %.lr.ph ], [ %.256, %.lr.ph.preheader ]
  %.pn59 = phi ptr [ %.260, %.lr.ph ], [ %0, %.lr.ph.preheader ]
  %.24858 = phi ptr [ %39, %.lr.ph ], [ %2, %.lr.ph.preheader ]
  tail call void asm sideeffect "", "r,~{dirflag},~{fpsr},~{flags}"(ptr nonnull %.260) #24, !srcloc !233
  %25 = getelementptr inbounds nuw i8, ptr %.24858, i64 4
  %26 = load i16, ptr %25, align 2, !tbaa !174
  %27 = uitofp i16 %26 to float
  store float %27, ptr %.pn59, align 4, !tbaa !50
  %28 = getelementptr inbounds nuw i8, ptr %.24858, i64 2
  %29 = load i16, ptr %28, align 2, !tbaa !174
  %30 = uitofp i16 %29 to float
  %31 = getelementptr inbounds nuw i8, ptr %.pn59, i64 4
  store float %30, ptr %31, align 4, !tbaa !50
  %32 = load i16, ptr %.24858, align 2, !tbaa !174
  %33 = uitofp i16 %32 to float
  %34 = getelementptr inbounds nuw i8, ptr %.pn59, i64 8
  store float %33, ptr %34, align 4, !tbaa !50
  %35 = getelementptr inbounds nuw i8, ptr %.24858, i64 6
  %36 = load i16, ptr %35, align 2, !tbaa !174
  %37 = uitofp i16 %36 to float
  %38 = getelementptr inbounds nuw i8, ptr %.pn59, i64 12
  store float %37, ptr %38, align 4, !tbaa !50
  %39 = getelementptr inbounds nuw i8, ptr %.24858, i64 8
  %.2 = getelementptr inbounds nuw i8, ptr %.260, i64 16
  %.not = icmp ugt ptr %.2, %5
  br i1 %.not, label %.loopexit, label %.lr.ph, !llvm.loop !234

.loopexit:                                        ; preds = %.lr.ph, %11, %.preheader
  ret void
}